ccopy_reg
_reconstructor
p1
(cxmppd.modules.db_fake
DictWatch
p2
c__builtin__
dict
p3
(dp4
S'192.168.43.170'
p5
g1
(g2
g3
(dp6
S'acc'
p7
g1
(g2
g3
(dp8
S'name'
p9
S'ACC'
p10
sS'groups'
p11
g1
(g2
g3
(dtRp12
sS'roster'
p13
g1
(g2
g3
(dtRp14
sS'anon_allow'
p15
S'yes'
p16
sS'password'
p17
S'pThuYakM'
p18
sS'storage'
p19
g1
(g2
g3
(dtRp20
stRp21
sS'df'
p22
g1
(g2
g3
(dp23
g9
S'DF'
p24
sg11
g1
(g2
g3
(dtRp25
sg13
g1
(g2
g3
(dtRp26
sg15
g16
sg17
S'qHOalHJR'
p27
sg19
g1
(g2
g3
(dtRp28
stRp29
sS'ams'
p30
g1
(g2
g3
(dp31
g9
S'AMS'
p32
sg11
g1
(g2
g3
(dtRp33
sg13
g1
(g2
g3
(dp34
S'killer@192.168.43.170'
p35
(dp36
S'state'
p37
S''
sS'subscription'
p38
S'none'
p39
ssS'nao1@192.168.43.170'
p40
(dp41
g37
S''
sg38
g39
sstRp42
sg15
g16
sg17
S'PtURxpSS'
p43
sg19
g1
(g2
g3
(dtRp44
stRp45
sVkiller
p46
g1
(g2
g3
(dp47
g9
Vkiller
p48
sg11
g1
(g2
g3
(dtRp49
sg13
g1
(g2
g3
(dp50
Vams.192.168.43.170
p51
(dp52
g37
S''
sg38
g39
sstRp53
sg15
g16
sg17
Vsecret
p54
sg19
g1
(g2
g3
(dtRp55
stRp56
sVnao1
p57
g1
(g2
g3
(dp58
g9
Vnao1
p59
sg11
g1
(g2
g3
(dtRp60
sg13
g1
(g2
g3
(dp61
Vams.192.168.43.170
p62
(dp63
g37
S''
sg38
g39
sstRp64
sg15
g16
sg17
Vsecret
p65
sg19
g1
(g2
g3
(dtRp66
stRp67
sS'__ir__'
p68
(dp69
g15
g16
sg17
S'test'
p70
sg19
(dp71
S'karma'
p72
(dp73
S'down'
p74
I307200
sS'tot_up'
p75
I0
sS'tot_down'
p76
I0
sS'up'
p77
I307200307200307200
sS'last_time'
p78
F0
sssg11
(dp79
sg13
(dp80
sstRp81
sS'127.0.0.1'
p82
g1
(g2
g3
(dp83
S'acc'
p84
g1
(g2
g3
(dp85
S'name'
p86
S'ACC'
p87
sS'groups'
p88
g1
(g2
g3
(dtRp89
sS'roster'
p90
g1
(g2
g3
(dtRp91
sS'anon_allow'
p92
S'yes'
p93
sS'password'
p94
S'OuBmnyYQ'
p95
sS'storage'
p96
g1
(g2
g3
(dtRp97
stRp98
sS'df'
p99
g1
(g2
g3
(dp100
g86
S'DF'
p101
sg88
g1
(g2
g3
(dtRp102
sg90
g1
(g2
g3
(dtRp103
sg92
g93
sg94
S'jwTvBCrn'
p104
sg96
g1
(g2
g3
(dtRp105
stRp106
sS'ams'
p107
g1
(g2
g3
(dp108
g86
S'AMS'
p109
sg88
g1
(g2
g3
(dtRp110
sg90
g1
(g2
g3
(dp111
S'nao1@127.0.0.1'
p112
(dp113
S'state'
p114
S''
sS'subscription'
p115
S'none'
p116
ssS'killer@127.0.0.1'
p117
(dp118
g114
S''
sg115
g116
sstRp119
sg92
g93
sg94
S'xiiODvOC'
p120
sg96
g1
(g2
g3
(dtRp121
stRp122
sVkiller
p123
g1
(g2
g3
(dp124
g86
Vkiller
p125
sg88
g1
(g2
g3
(dtRp126
sg90
g1
(g2
g3
(dp127
Vams.127.0.0.1
p128
(dp129
g114
S''
sg115
g116
sstRp130
sg92
g93
sg94
Vsecret
p131
sg96
g1
(g2
g3
(dtRp132
stRp133
sVnao1
p134
g1
(g2
g3
(dp135
S'name'
p136
Vnao1
p137
sS'groups'
p138
g1
(g2
g3
(dtRp139
sS'roster'
p140
g1
(g2
g3
(dp141
Vams.127.0.0.1
p142
(dp143
S'state'
p144
S''
sS'subscription'
p145
g116
sstRp146
sS'anon_allow'
p147
S'yes'
p148
sS'password'
p149
Vsecret
p150
sS'storage'
p151
g1
(g2
g3
(dtRp152
stRp153
sS'__ir__'
p154
(dp155
g92
g93
sg94
S'test'
p156
sg96
(dp157
S'karma'
p158
(dp159
S'down'
p160
I307200
sS'tot_up'
p161
I0
sS'tot_down'
p162
I0
sS'up'
p163
I307200307200307200
sS'last_time'
p164
F0
sssg88
(dp165
sg90
(dp166
sstRp167
stRp168
.