ccopy_reg
_reconstructor
p1
(cxmppd.modules.db_fake
DictWatch
p2
c__builtin__
dict
p3
(dp4
S'192.168.43.170'
p5
g1
(g2
g3
(dp6
S'acc'
p7
g1
(g2
g3
(dp8
S'name'
p9
S'ACC'
p10
sS'groups'
p11
g1
(g2
g3
(dtRp12
sS'roster'
p13
g1
(g2
g3
(dtRp14
sS'anon_allow'
p15
S'yes'
p16
sS'password'
p17
S'pThuYakM'
p18
sS'storage'
p19
g1
(g2
g3
(dtRp20
stRp21
sS'__ir__'
p22
(dp23
g15
g16
sg17
S'test'
p24
sg19
(dp25
S'karma'
p26
(dp27
S'down'
p28
I307200
sS'tot_up'
p29
I0
sS'tot_down'
p30
I0
sS'up'
p31
I307200307200307200
sS'last_time'
p32
F0
sssg11
(dp33
sg13
(dp34
ssS'df'
p35
g1
(g2
g3
(dp36
g9
S'DF'
p37
sg11
g1
(g2
g3
(dtRp38
sg13
g1
(g2
g3
(dtRp39
sg15
g16
sg17
S'qHOalHJR'
p40
sg19
g1
(g2
g3
(dtRp41
stRp42
sS'ams'
p43
g1
(g2
g3
(dp44
g9
S'AMS'
p45
sg11
g1
(g2
g3
(dtRp46
sg13
g1
(g2
g3
(dp47
S'killer@192.168.43.170'
p48
(dp49
S'state'
p50
S''
sS'subscription'
p51
S'none'
p52
ssS'nao1@192.168.43.170'
p53
(dp54
g50
S''
sg51
g52
sstRp55
sg15
g16
sg17
S'PtURxpSS'
p56
sg19
g1
(g2
g3
(dtRp57
stRp58
sVkiller
p59
g1
(g2
g3
(dp60
S'name'
p61
Vkiller
p62
sS'groups'
p63
g1
(g2
g3
(dtRp64
sS'roster'
p65
g1
(g2
g3
(dp66
Vams.192.168.43.170
p67
(dp68
S'state'
p69
S''
sS'subscription'
p70
S'none'
p71
sstRp72
sS'anon_allow'
p73
S'yes'
p74
sS'password'
p75
Vsecret
p76
sS'storage'
p77
g1
(g2
g3
(dtRp78
stRp79
sVnao1
p80
g1
(g2
g3
(dp81
g61
Vnao1
p82
sg63
g1
(g2
g3
(dtRp83
sg65
g1
(g2
g3
(dp84
Vams.192.168.43.170
p85
(dp86
g69
S''
sg70
g52
sstRp87
sg73
g74
sg75
Vsecret
p88
sg77
g1
(g2
g3
(dtRp89
stRp90
stRp91
sS'127.0.0.1'
p92
g1
(g2
g3
(dp93
S'acc'
p94
g1
(g2
g3
(dp95
S'name'
p96
S'ACC'
p97
sS'groups'
p98
g1
(g2
g3
(dtRp99
sS'roster'
p100
g1
(g2
g3
(dtRp101
sS'anon_allow'
p102
S'yes'
p103
sS'password'
p104
S'OuBmnyYQ'
p105
sS'storage'
p106
g1
(g2
g3
(dtRp107
stRp108
sS'df'
p109
g1
(g2
g3
(dp110
g96
S'DF'
p111
sg98
g1
(g2
g3
(dtRp112
sg100
g1
(g2
g3
(dtRp113
sg102
g103
sg104
S'jwTvBCrn'
p114
sg106
g1
(g2
g3
(dtRp115
stRp116
sS'ams'
p117
g1
(g2
g3
(dp118
g96
S'AMS'
p119
sg98
g1
(g2
g3
(dtRp120
sg100
g1
(g2
g3
(dp121
S'nao1@127.0.0.1'
p122
(dp123
S'state'
p124
S''
sS'subscription'
p125
S'none'
p126
ssS'killer@127.0.0.1'
p127
(dp128
g124
S''
sg125
g126
sstRp129
sg102
g103
sg104
S'xiiODvOC'
p130
sg106
g1
(g2
g3
(dtRp131
stRp132
sVkiller
p133
g1
(g2
g3
(dp134
g96
Vkiller
p135
sg98
g1
(g2
g3
(dtRp136
sg100
g1
(g2
g3
(dp137
Vams.127.0.0.1
p138
(dp139
g124
S''
sg125
g126
sstRp140
sg102
g103
sg104
Vsecret
p141
sg106
g1
(g2
g3
(dtRp142
stRp143
sVnao1
p144
g1
(g2
g3
(dp145
S'name'
p146
Vnao1
p147
sS'groups'
p148
g1
(g2
g3
(dtRp149
sS'roster'
p150
g1
(g2
g3
(dp151
Vams.127.0.0.1
p152
(dp153
S'state'
p154
S''
sS'subscription'
p155
g126
sstRp156
sS'anon_allow'
p157
S'yes'
p158
sS'password'
p159
Vsecret
p160
sS'storage'
p161
g1
(g2
g3
(dtRp162
stRp163
stRp164
stRp165
.